; Function Attrs: mustprogress nofree norecurse nosync nounwind willreturn memory(argmem: readwrite) uwtable
define noundef i32 @ossl_x509_PUBKEY_get0_libctx(ptr noundef writeonly captures(address_is_null) %0, ptr noundef writeonly captures(address_is_null) %1, ptr noundef readonly captures(none) %2) local_unnamed_addr #7 {
  %.not = icmp eq ptr %0, null
  br i1 %.not, label %7, label %4

4:                                                ; preds = %3
  %5 = getelementptr inbounds nuw i8, ptr %2, i64 24
  %6 = load ptr, ptr %5, align 8, !tbaa !8
  store ptr %6, ptr %0, align 8, !tbaa !85
  br label %7

7:                                                ; preds = %4, %3
  %.not7 = icmp eq ptr %1, null
  br i1 %.not7, label %11, label %8

8:                                                ; preds = %7
  %9 = getelementptr inbounds nuw i8, ptr %2, i64 32
  %10 = load ptr, ptr %9, align 8, !tbaa !16
  store ptr %10, ptr %1, align 8, !tbaa !46
  br label %11

11:                                               ; preds = %8, %7
  ret i32 1
}